target datalayout = "e-m:e-p270:32:32-p271:32:32-p272:64:64-i64:64-i128:128-f80:128-n8:16:32:64-S128"
target triple = "x86_64-pc-linux-gnu"

@hartip_desegment = internal global i8 1, align 1

; Function Attrs: null_pointer_is_valid sspstrong uwtable
define internal i32 @dissect_hartip_tcp(ptr noundef %0, ptr noundef %1, ptr noundef %2, ptr noundef %3) #0 {
  %5 = alloca i32, align 4
  %6 = alloca ptr, align 8
  %7 = alloca ptr, align 8
  %8 = alloca ptr, align 8
  %9 = alloca ptr, align 8
  %10 = alloca ptr, align 8
  %11 = alloca i32, align 4
  store ptr %0, ptr %6, align 8
  store ptr %1, ptr %7, align 8
  store ptr %2, ptr %8, align 8
  store ptr %3, ptr %9, align 8
  call void @llvm.lifetime.start.p0(i64 8, ptr %10) #5
  %12 = load ptr, ptr %6, align 8
  %13 = call zeroext i8 @tvb_get_uint8(ptr noundef %12, i32 noundef 1)
  %14 = zext i8 %13 to i32
  %15 = call ptr @try_val_to_str(i32 noundef %14, ptr noundef @hartip_message_type_values)
  store ptr %15, ptr %10, align 8
  %16 = load ptr, ptr %10, align 8
  %17 = icmp ne ptr %16, null
  br i1 %17, label %19, label %18

18:                                               ; preds = %4
  store i32 0, ptr %5, align 4
  store i32 1, ptr %11, align 4
  br label %36

19:                                               ; preds = %4
  %20 = load ptr, ptr %6, align 8
  %21 = call zeroext i8 @tvb_get_uint8(ptr noundef %20, i32 noundef 2)
  %22 = zext i8 %21 to i32
  %23 = call ptr @try_val_to_str(i32 noundef %22, ptr noundef @hartip_message_id_values)
  store ptr %23, ptr %10, align 8
  %24 = load ptr, ptr %10, align 8
  %25 = icmp ne ptr %24, null
  br i1 %25, label %27, label %26

26:                                               ; preds = %19
  store i32 0, ptr %5, align 4
  store i32 1, ptr %11, align 4
  br label %36

27:                                               ; preds = %19
  %28 = load ptr, ptr %6, align 8
  %29 = load ptr, ptr %7, align 8
  %30 = load ptr, ptr %8, align 8
  %31 = load i8, ptr @hartip_desegment, align 1, !range !8, !noundef !9
  %32 = trunc i8 %31 to i1
  %33 = load ptr, ptr %9, align 8
  call void @tcp_dissect_pdus(ptr noundef %28, ptr noundef %29, ptr noundef %30, i1 noundef zeroext %32, i32 noundef 8, ptr noundef @get_dissect_hartip_len, ptr noundef @dissect_hartip_pdu, ptr noundef %33)
  %34 = load ptr, ptr %6, align 8
  %35 = call i32 @tvb_reported_length(ptr noundef %34)
  store i32 %35, ptr %5, align 4
  store i32 1, ptr %11, align 4
  br label %36

36:                                               ; preds = %27, %26, %18
  call void @llvm.lifetime.end.p0(i64 8, ptr %10) #5
  %37 = load i32, ptr %5, align 4
  ret i32 %37
}