; Function Attrs: null_pointer_is_valid sspstrong uwtable
define internal i32 @dissect_hartip_tcp(ptr noundef %0, ptr noundef %1, ptr noundef %2, ptr noundef %3) #0 {
  %5 = tail call zeroext i8 @tvb_get_uint8(ptr noundef %0, i32 noundef 1)
  %6 = zext i8 %5 to i32
  %7 = tail call ptr @try_val_to_str(i32 noundef %6, ptr noundef nonnull @hartip_message_type_values)
  %.not = icmp eq ptr %7, null
  br i1 %.not, label %16, label %8

8:                                                ; preds = %4
  %9 = tail call zeroext i8 @tvb_get_uint8(ptr noundef %0, i32 noundef 2)
  %10 = zext i8 %9 to i32
  %11 = tail call ptr @try_val_to_str(i32 noundef %10, ptr noundef nonnull @hartip_message_id_values)
  %.not9 = icmp eq ptr %11, null
  br i1 %.not9, label %16, label %12

12:                                               ; preds = %8
  %13 = load i8, ptr @hartip_desegment, align 1, !range !8, !noundef !9
  %14 = trunc nuw i8 %13 to i1
  tail call void @tcp_dissect_pdus(ptr noundef %0, ptr noundef %1, ptr noundef %2, i1 noundef zeroext %14, i32 noundef 8, ptr noundef nonnull @get_dissect_hartip_len, ptr noundef nonnull @dissect_hartip_pdu, ptr noundef %3)
  %15 = tail call i32 @tvb_reported_length(ptr noundef %0)
  br label %16

16:                                               ; preds = %8, %4, %12
  %.0 = phi i32 [ %15, %12 ], [ 0, %4 ], [ 0, %8 ]
  ret i32 %.0
}